target datalayout = "e-m:e-p270:32:32-p271:32:32-p272:64:64-i64:64-i128:128-f80:128-n8:16:32:64-S128"
target triple = "x86_64-pc-linux-gnu"

; Function Attrs: mustprogress nounwind uwtable
define dso_local noundef ptr @_Z20ImParseFormatFindEndPKc(ptr noundef %0) #4 {
  %2 = alloca ptr, align 8
  %3 = alloca ptr, align 8
  %4 = alloca i32, align 4
  %5 = alloca i32, align 4
  %6 = alloca i8, align 1
  %7 = alloca i32, align 4
  store ptr %0, ptr %3, align 8, !tbaa !4
  %8 = load ptr, ptr %3, align 8, !tbaa !4
  %9 = getelementptr inbounds i8, ptr %8, i64 0
  %10 = load i8, ptr %9, align 1, !tbaa !380
  %11 = sext i8 %10 to i32
  %12 = icmp ne i32 %11, 37
  br i1 %12, label %13, label %15

13:                                               ; preds = %1
  %14 = load ptr, ptr %3, align 8, !tbaa !4
  store ptr %14, ptr %2, align 8
  br label %67

15:                                               ; preds = %1
  call void @llvm.lifetime.start.p0(i64 4, ptr %4) #17
  store i32 2304, ptr %4, align 4, !tbaa !9
  call void @llvm.lifetime.start.p0(i64 4, ptr %5) #17
  store i32 38275712, ptr %5, align 4, !tbaa !9
  call void @llvm.lifetime.start.p0(i64 1, ptr %6) #17
  br label %16

16:                                               ; preds = %59, %15
  %17 = load ptr, ptr %3, align 8, !tbaa !4
  %18 = load i8, ptr %17, align 1, !tbaa !380
  store i8 %18, ptr %6, align 1, !tbaa !380
  %19 = sext i8 %18 to i32
  %20 = icmp ne i32 %19, 0
  br i1 %20, label %22, label %21

21:                                               ; preds = %16
  store i32 2, ptr %7, align 4
  br label %62

22:                                               ; preds = %16
  %23 = load i8, ptr %6, align 1, !tbaa !380
  %24 = sext i8 %23 to i32
  %25 = icmp sge i32 %24, 65
  br i1 %25, label %26, label %40

26:                                               ; preds = %22
  %27 = load i8, ptr %6, align 1, !tbaa !380
  %28 = sext i8 %27 to i32
  %29 = icmp sle i32 %28, 90
  br i1 %29, label %30, label %40

30:                                               ; preds = %26
  %31 = load i8, ptr %6, align 1, !tbaa !380
  %32 = sext i8 %31 to i32
  %33 = sub nsw i32 %32, 65
  %34 = shl i32 1, %33
  %35 = and i32 %34, 2304
  %36 = icmp eq i32 %35, 0
  br i1 %36, label %37, label %40

37:                                               ; preds = %30
  %38 = load ptr, ptr %3, align 8, !tbaa !4
  %39 = getelementptr inbounds i8, ptr %38, i64 1
  store ptr %39, ptr %2, align 8
  store i32 1, ptr %7, align 4
  br label %62

40:                                               ; preds = %30, %26, %22
  %41 = load i8, ptr %6, align 1, !tbaa !380
  %42 = sext i8 %41 to i32
  %43 = icmp sge i32 %42, 97
  br i1 %43, label %44, label %58

44:                                               ; preds = %40
  %45 = load i8, ptr %6, align 1, !tbaa !380
  %46 = sext i8 %45 to i32
  %47 = icmp sle i32 %46, 122
  br i1 %47, label %48, label %58

48:                                               ; preds = %44
  %49 = load i8, ptr %6, align 1, !tbaa !380
  %50 = sext i8 %49 to i32
  %51 = sub nsw i32 %50, 97
  %52 = shl i32 1, %51
  %53 = and i32 %52, 38275712
  %54 = icmp eq i32 %53, 0
  br i1 %54, label %55, label %58

55:                                               ; preds = %48
  %56 = load ptr, ptr %3, align 8, !tbaa !4
  %57 = getelementptr inbounds i8, ptr %56, i64 1
  store ptr %57, ptr %2, align 8
  store i32 1, ptr %7, align 4
  br label %62

58:                                               ; preds = %48, %44, %40
  br label %59

59:                                               ; preds = %58
  %60 = load ptr, ptr %3, align 8, !tbaa !4
  %61 = getelementptr inbounds nuw i8, ptr %60, i32 1
  store ptr %61, ptr %3, align 8, !tbaa !4
  br label %16, !llvm.loop !411

62:                                               ; preds = %55, %37, %21
  call void @llvm.lifetime.end.p0(i64 1, ptr %6) #17
  %63 = load i32, ptr %7, align 4
  switch i32 %63, label %66 [
    i32 2, label %64
  ]

64:                                               ; preds = %62
  %65 = load ptr, ptr %3, align 8, !tbaa !4
  store ptr %65, ptr %2, align 8
  store i32 1, ptr %7, align 4
  br label %66

66:                                               ; preds = %64, %62
  call void @llvm.lifetime.end.p0(i64 4, ptr %5) #17
  call void @llvm.lifetime.end.p0(i64 4, ptr %4) #17
  br label %67

67:                                               ; preds = %66, %13
  %68 = load ptr, ptr %2, align 8
  ret ptr %68
}

; Function Attrs: mustprogress nounwind uwtable
define dso_local void @_Z32ImParseFormatSanitizeForPrintingPKcPcm(ptr noundef %0, ptr noundef %1, i64 noundef %2) #4 {
  %4 = alloca ptr, align 8
  %5 = alloca ptr, align 8
  %6 = alloca i64, align 8
  %7 = alloca ptr, align 8
  %8 = alloca i8, align 1
  store ptr %0, ptr %4, align 8, !tbaa !4
  store ptr %1, ptr %5, align 8, !tbaa !4
  store i64 %2, ptr %6, align 8, !tbaa !241
  call void @llvm.lifetime.start.p0(i64 8, ptr %7) #17
  %9 = load ptr, ptr %4, align 8, !tbaa !4
  %10 = call noundef ptr @_Z20ImParseFormatFindEndPKc(ptr noundef %9)
  store ptr %10, ptr %7, align 8, !tbaa !4
  br label %11

11:                                               ; preds = %34, %3
  %12 = load ptr, ptr %4, align 8, !tbaa !4
  %13 = load ptr, ptr %7, align 8, !tbaa !4
  %14 = icmp ult ptr %12, %13
  br i1 %14, label %15, label %35

15:                                               ; preds = %11
  call void @llvm.lifetime.start.p0(i64 1, ptr %8) #17
  %16 = load ptr, ptr %4, align 8, !tbaa !4
  %17 = getelementptr inbounds nuw i8, ptr %16, i32 1
  store ptr %17, ptr %4, align 8, !tbaa !4
  %18 = load i8, ptr %16, align 1, !tbaa !380
  store i8 %18, ptr %8, align 1, !tbaa !380
  %19 = load i8, ptr %8, align 1, !tbaa !380
  %20 = sext i8 %19 to i32
  %21 = icmp ne i32 %20, 39
  br i1 %21, label %22, label %34

22:                                               ; preds = %15
  %23 = load i8, ptr %8, align 1, !tbaa !380
  %24 = sext i8 %23 to i32
  %25 = icmp ne i32 %24, 36
  br i1 %25, label %26, label %34

26:                                               ; preds = %22
  %27 = load i8, ptr %8, align 1, !tbaa !380
  %28 = sext i8 %27 to i32
  %29 = icmp ne i32 %28, 95
  br i1 %29, label %30, label %34

30:                                               ; preds = %26
  %31 = load i8, ptr %8, align 1, !tbaa !380
  %32 = load ptr, ptr %5, align 8, !tbaa !4
  %33 = getelementptr inbounds nuw i8, ptr %32, i32 1
  store ptr %33, ptr %5, align 8, !tbaa !4
  store i8 %31, ptr %32, align 1, !tbaa !380
  br label %34

34:                                               ; preds = %30, %26, %22, %15
  call void @llvm.lifetime.end.p0(i64 1, ptr %8) #17
  br label %11, !llvm.loop !412

35:                                               ; preds = %11
  %36 = load ptr, ptr %5, align 8, !tbaa !4
  store i8 0, ptr %36, align 1, !tbaa !380
  call void @llvm.lifetime.end.p0(i64 8, ptr %7) #17
  ret void
}