; Function Attrs: mustprogress nofree norecurse nosync nounwind memory(argmem: readwrite) uwtable
define dso_local void @_Z32ImParseFormatSanitizeForPrintingPKcPcm(ptr noundef readonly captures(address) %0, ptr noundef writeonly captures(none) %1, i64 noundef %2) local_unnamed_addr #17 {
  %4 = load i8, ptr %0, align 1, !tbaa !338
  %.not.i = icmp eq i8 %4, 37
  br i1 %.not.i, label %.preheader.i, label %._crit_edge

.preheader.i:                                     ; preds = %3, %.thread.i
  %5 = phi i32 [ %25, %.thread.i ], [ 37, %3 ]
  %.02026.i = phi ptr [ %24, %.thread.i ], [ %0, %3 ]
  %6 = phi i8 [ %.pr.i, %.thread.i ], [ 37, %3 ]
  %7 = add i8 %6, -65
  %or.cond.i = icmp ult i8 %7, 26
  br i1 %or.cond.i, label %8, label %15

8:                                                ; preds = %.preheader.i
  %9 = add nsw i32 %5, -65
  %10 = shl nuw nsw i32 1, %9
  %11 = and i32 %10, 2304
  %12 = icmp eq i32 %11, 0
  br i1 %12, label %13, label %.thread.i

13:                                               ; preds = %8
  %14 = getelementptr inbounds nuw i8, ptr %.02026.i, i64 1
  br label %_Z20ImParseFormatFindEndPKc.exit

15:                                               ; preds = %.preheader.i
  %16 = add i8 %6, -97
  %or.cond5.i = icmp ult i8 %16, 26
  br i1 %or.cond5.i, label %17, label %.thread.i

17:                                               ; preds = %15
  %18 = add nsw i32 %5, -97
  %19 = shl nuw nsw i32 1, %18
  %20 = and i32 %19, 38275712
  %21 = icmp eq i32 %20, 0
  br i1 %21, label %22, label %.thread.i

22:                                               ; preds = %17
  %23 = getelementptr inbounds nuw i8, ptr %.02026.i, i64 1
  br label %_Z20ImParseFormatFindEndPKc.exit

.thread.i:                                        ; preds = %17, %15, %8
  %24 = getelementptr inbounds nuw i8, ptr %.02026.i, i64 1
  %.pr.i = load i8, ptr %24, align 1, !tbaa !338
  %25 = sext i8 %.pr.i to i32
  %.not22.i = icmp eq i8 %.pr.i, 0
  br i1 %.not22.i, label %_Z20ImParseFormatFindEndPKc.exit, label %.preheader.i, !llvm.loop !347

_Z20ImParseFormatFindEndPKc.exit:                 ; preds = %.thread.i, %13, %22
  %.019.i = phi ptr [ %14, %13 ], [ %23, %22 ], [ %24, %.thread.i ]
  %26 = icmp ult ptr %0, %.019.i
  br i1 %26, label %.lr.ph, label %._crit_edge

.lr.ph:                                           ; preds = %_Z20ImParseFormatFindEndPKc.exit, %31
  %.018 = phi ptr [ %27, %31 ], [ %0, %_Z20ImParseFormatFindEndPKc.exit ]
  %.01417 = phi ptr [ %.1, %31 ], [ %1, %_Z20ImParseFormatFindEndPKc.exit ]
  %27 = getelementptr inbounds nuw i8, ptr %.018, i64 1
  %28 = load i8, ptr %.018, align 1, !tbaa !338
  switch i8 %28, label %29 [
    i8 95, label %31
    i8 39, label %31
    i8 36, label %31
  ]

29:                                               ; preds = %.lr.ph
  %30 = getelementptr inbounds nuw i8, ptr %.01417, i64 1
  store i8 %28, ptr %.01417, align 1, !tbaa !338
  br label %31

31:                                               ; preds = %.lr.ph, %.lr.ph, %.lr.ph, %29
  %.1 = phi ptr [ %30, %29 ], [ %.01417, %.lr.ph ], [ %.01417, %.lr.ph ], [ %.01417, %.lr.ph ]
  %exitcond.not = icmp eq ptr %27, %.019.i
  br i1 %exitcond.not, label %._crit_edge, label %.lr.ph, !llvm.loop !367

._crit_edge:                                      ; preds = %31, %3, %_Z20ImParseFormatFindEndPKc.exit
  %.014.lcssa = phi ptr [ %1, %_Z20ImParseFormatFindEndPKc.exit ], [ %1, %3 ], [ %.1, %31 ]
  store i8 0, ptr %.014.lcssa, align 1, !tbaa !338
  ret void
}